target datalayout = "e-m:e-p270:32:32-p271:32:32-p272:64:64-i64:64-i128:128-f80:128-n8:16:32:64-S128"
target triple = "x86_64-pc-linux-gnu"

%struct.FunctionCallInfoBaseData = type { ptr, ptr, ptr, i32, i8, i16, [0 x %struct.NullableDatum] }
%struct.NullableDatum = type { i64, i8 }
%union.anon.1 = type { double }
%union.anon.2 = type { i64 }

; Function Attrs: inlinehint nounwind uwtable
define internal i64 @Int64GetDatum(i64 noundef %0) #2 {
  %2 = alloca i64, align 8
  store i64 %0, ptr %2, align 8
  %3 = load i64, ptr %2, align 8
  ret i64 %3
}

; Function Attrs: inlinehint nounwind uwtable
define internal i64 @DatumGetInt64(i64 noundef %0) #2 {
  %2 = alloca i64, align 8
  store i64 %0, ptr %2, align 8
  %3 = load i64, ptr %2, align 8
  ret i64 %3
}

; Function Attrs: inlinehint nounwind uwtable
define internal i64 @Float8GetDatum(double noundef %0) #2 {
  %2 = alloca double, align 8
  %3 = alloca %union.anon.1, align 8
  store double %0, ptr %2, align 8
  call void @llvm.lifetime.start.p0(i64 8, ptr %3) #10
  %4 = load double, ptr %2, align 8
  store double %4, ptr %3, align 8
  %5 = load i64, ptr %3, align 8
  %6 = call i64 @Int64GetDatum(i64 noundef %5)
  call void @llvm.lifetime.end.p0(i64 8, ptr %3) #10
  ret i64 %6
}

; Function Attrs: inlinehint nounwind uwtable
define internal double @DatumGetFloat8(i64 noundef %0) #2 {
  %2 = alloca i64, align 8
  %3 = alloca %union.anon.2, align 8
  store i64 %0, ptr %2, align 8
  call void @llvm.lifetime.start.p0(i64 8, ptr %3) #10
  %4 = load i64, ptr %2, align 8
  %5 = call i64 @DatumGetInt64(i64 noundef %4)
  store i64 %5, ptr %3, align 8
  %6 = load double, ptr %3, align 8
  call void @llvm.lifetime.end.p0(i64 8, ptr %3) #10
  ret double %6
}

; Function Attrs: nounwind uwtable
define dso_local i64 @numrange_subdiff(ptr noundef %0) #0 {
  %2 = alloca ptr, align 8
  %3 = alloca i64, align 8
  %4 = alloca i64, align 8
  %5 = alloca i64, align 8
  %6 = alloca double, align 8
  store ptr %0, ptr %2, align 8
  call void @llvm.lifetime.start.p0(i64 8, ptr %3) #10
  %7 = load ptr, ptr %2, align 8
  %8 = getelementptr inbounds nuw %struct.FunctionCallInfoBaseData, ptr %7, i32 0, i32 6
  %9 = getelementptr inbounds [0 x %struct.NullableDatum], ptr %8, i64 0, i64 0
  %10 = getelementptr inbounds nuw %struct.NullableDatum, ptr %9, i32 0, i32 0
  %11 = load i64, ptr %10, align 8
  store i64 %11, ptr %3, align 8
  call void @llvm.lifetime.start.p0(i64 8, ptr %4) #10
  %12 = load ptr, ptr %2, align 8
  %13 = getelementptr inbounds nuw %struct.FunctionCallInfoBaseData, ptr %12, i32 0, i32 6
  %14 = getelementptr inbounds [0 x %struct.NullableDatum], ptr %13, i64 0, i64 1
  %15 = getelementptr inbounds nuw %struct.NullableDatum, ptr %14, i32 0, i32 0
  %16 = load i64, ptr %15, align 8
  store i64 %16, ptr %4, align 8
  call void @llvm.lifetime.start.p0(i64 8, ptr %5) #10
  call void @llvm.lifetime.start.p0(i64 8, ptr %6) #10
  %17 = load i64, ptr %3, align 8
  %18 = load i64, ptr %4, align 8
  %19 = call i64 @DirectFunctionCall2Coll(ptr noundef @numeric_sub, i32 noundef 0, i64 noundef %17, i64 noundef %18)
  store i64 %19, ptr %5, align 8
  %20 = load i64, ptr %5, align 8
  %21 = call i64 @DirectFunctionCall1Coll(ptr noundef @numeric_float8, i32 noundef 0, i64 noundef %20)
  %22 = call double @DatumGetFloat8(i64 noundef %21)
  store double %22, ptr %6, align 8
  %23 = load double, ptr %6, align 8
  %24 = call i64 @Float8GetDatum(double noundef %23)
  call void @llvm.lifetime.end.p0(i64 8, ptr %6) #10
  call void @llvm.lifetime.end.p0(i64 8, ptr %5) #10
  call void @llvm.lifetime.end.p0(i64 8, ptr %4) #10
  call void @llvm.lifetime.end.p0(i64 8, ptr %3) #10
  ret i64 %24
}