; Function Attrs: nounwind uwtable
define dso_local i64 @numrange_subdiff(ptr noundef readonly captures(none) %0) local_unnamed_addr #0 {
  %2 = getelementptr inbounds nuw i8, ptr %0, i64 32
  %3 = load i64, ptr %2, align 8
  %4 = getelementptr inbounds nuw i8, ptr %0, i64 48
  %5 = load i64, ptr %4, align 8
  %6 = tail call i64 @DirectFunctionCall2Coll(ptr noundef nonnull @numeric_sub, i32 noundef 0, i64 noundef %3, i64 noundef %5) #14
  %7 = tail call i64 @DirectFunctionCall1Coll(ptr noundef nonnull @numeric_float8, i32 noundef 0, i64 noundef %6) #14
  ret i64 %7
}